target datalayout = "e-m:e-p270:32:32-p271:32:32-p272:64:64-i64:64-i128:128-f80:128-n8:16:32:64-S128"
target triple = "x86_64-pc-linux-gnu"

%"struct.cv::gimpl::FluidMapper" = type <{ ptr, double, i32, [4 x i8] }>

; Function Attrs: inlinehint mustprogress nounwind uwtable
define internal noundef double @_ZN12_GLOBAL__N_17inCoordEid(i32 noundef %0, double noundef %1) #8 {
  %3 = alloca i32, align 4
  %4 = alloca double, align 8
  store i32 %0, ptr %3, align 4, !tbaa !146
  store double %1, ptr %4, align 8, !tbaa !170
  %5 = load i32, ptr %3, align 4, !tbaa !146
  %6 = sitofp i32 %5 to double
  %7 = load double, ptr %4, align 8, !tbaa !170
  %8 = fmul double %6, %7
  ret double %8
}

; Function Attrs: inlinehint mustprogress nounwind uwtable
define internal noundef i32 @_ZN12_GLOBAL__N_111windowStartEid(i32 noundef %0, double noundef %1) #8 {
  %3 = alloca i32, align 4
  %4 = alloca double, align 8
  store i32 %0, ptr %3, align 4, !tbaa !146
  store double %1, ptr %4, align 8, !tbaa !170
  %5 = load i32, ptr %3, align 4, !tbaa !146
  %6 = load double, ptr %4, align 8, !tbaa !170
  %7 = call noundef double @_ZN12_GLOBAL__N_17inCoordEid(i32 noundef %5, double noundef %6)
  %8 = fadd double %7, 1.000000e-03
  %9 = fptosi double %8 to i32
  ret i32 %9
}

; Function Attrs: inlinehint mustprogress uwtable
define internal noundef i32 @_ZN12_GLOBAL__N_19windowEndEid(i32 noundef %0, double noundef %1) #6 {
  %3 = alloca i32, align 4
  %4 = alloca double, align 8
  store i32 %0, ptr %3, align 4, !tbaa !146
  store double %1, ptr %4, align 8, !tbaa !170
  %5 = load i32, ptr %3, align 4, !tbaa !146
  %6 = add nsw i32 %5, 1
  %7 = load double, ptr %4, align 8, !tbaa !170
  %8 = call noundef double @_ZN12_GLOBAL__N_17inCoordEid(i32 noundef %6, double noundef %7)
  %9 = fsub double %8, 1.000000e-03
  %10 = call double @llvm.ceil.f64(double %9)
  %11 = fptosi double %10 to i32
  ret i32 %11
}

; Function Attrs: mustprogress uwtable
define hidden noundef i32 @_ZNK2cv5gimpl20FluidDownscaleMapper11firstWindowEii(ptr noundef nonnull align 8 dereferenceable(20) %0, i32 noundef %1, i32 noundef %2) unnamed_addr #4 align 2 {
  %4 = alloca ptr, align 8
  %5 = alloca i32, align 4
  %6 = alloca i32, align 4
  store ptr %0, ptr %4, align 8, !tbaa !165
  store i32 %1, ptr %5, align 4, !tbaa !146
  store i32 %2, ptr %6, align 4, !tbaa !146
  %7 = load ptr, ptr %4, align 8
  %8 = load i32, ptr %5, align 4, !tbaa !146
  %9 = load i32, ptr %6, align 4, !tbaa !146
  %10 = add nsw i32 %8, %9
  %11 = sub nsw i32 %10, 1
  %12 = getelementptr inbounds nuw %"struct.cv::gimpl::FluidMapper", ptr %7, i32 0, i32 1
  %13 = load double, ptr %12, align 8, !tbaa !167
  %14 = call noundef i32 @_ZN12_GLOBAL__N_19windowEndEid(i32 noundef %11, double noundef %13)
  %15 = load i32, ptr %5, align 4, !tbaa !146
  %16 = getelementptr inbounds nuw %"struct.cv::gimpl::FluidMapper", ptr %7, i32 0, i32 1
  %17 = load double, ptr %16, align 8, !tbaa !167
  %18 = call noundef i32 @_ZN12_GLOBAL__N_111windowStartEid(i32 noundef %15, double noundef %17)
  %19 = sub nsw i32 %14, %18
  ret i32 %19
}