; Function Attrs: mustprogress nofree norecurse nosync nounwind willreturn memory(argmem: read) uwtable
define hidden noundef i32 @_ZNK2cv5gimpl20FluidDownscaleMapper11firstWindowEii(ptr noundef nonnull readonly align 8 captures(none) dereferenceable(20) %0, i32 noundef %1, i32 noundef %2) unnamed_addr #9 align 2 {
  %4 = add nsw i32 %2, %1
  %5 = getelementptr inbounds nuw i8, ptr %0, i64 8
  %6 = load double, ptr %5, align 8, !tbaa !180
  %7 = sitofp i32 %4 to double
  %8 = fmul double %6, %7
  %9 = fadd double %8, -1.000000e-03
  %10 = tail call double @llvm.ceil.f64(double %9)
  %11 = fptosi double %10 to i32
  %12 = sitofp i32 %1 to double
  %13 = fmul double %6, %12
  %14 = fadd double %13, 1.000000e-03
  %15 = fptosi double %14 to i32
  %16 = sub nsw i32 %11, %15
  ret i32 %16
}